; Function Attrs: mustprogress uwtable
define void @_ZN30MLRenderingBBoxParametersFrame21allTopLevelGuiActionsER5QListIP7QActionE(ptr nocapture noundef nonnull readonly align 8 dereferenceable(96) %0, ptr noundef nonnull align 8 dereferenceable(8) %1) unnamed_addr #3 align 2 personality ptr @__gxx_personality_v0 {
  %3 = alloca %class.QList.4, align 8
  %4 = alloca %class.QList.4, align 8
  %5 = getelementptr inbounds i8, ptr %0, i64 64
  %6 = load ptr, ptr %5, align 8
  call void @_ZN18MLRenderingToolbar18getTopLevelActionsEv(ptr dead_on_unwind nonnull writable sret(%class.QList.4) align 8 %3, ptr noundef nonnull align 8 dereferenceable(96) %6)
  %7 = invoke noundef nonnull align 8 dereferenceable(8) ptr @_ZN5QListIP7QActionEpLERKS2_(ptr noundef nonnull align 8 dereferenceable(8) %1, ptr noundef nonnull align 8 dereferenceable(8) %3)
          to label %_ZN5QListIP7QActionE6appendERKS2_.exit unwind label %25

_ZN5QListIP7QActionE6appendERKS2_.exit:           ; preds = %2
  %8 = load ptr, ptr %3, align 8
  %9 = load atomic i32, ptr %8 monotonic, align 4
  switch i32 %9, label %_ZN9QtPrivate8RefCount5derefEv.exit.i [
    i32 0, label %_ZN9QtPrivate8RefCount5derefEv.exit.thread2.i
    i32 -1, label %_ZN5QListIP7QActionED2Ev.exit
  ]

_ZN9QtPrivate8RefCount5derefEv.exit.i:            ; preds = %_ZN5QListIP7QActionE6appendERKS2_.exit
  %10 = atomicrmw sub ptr %8, i32 1 seq_cst, align 4
  %.not.i = icmp eq i32 %10, 1
  br i1 %.not.i, label %_ZN9QtPrivate8RefCount5derefEv.exit._ZN9QtPrivate8RefCount5derefEv.exit.thread2_crit_edge.i, label %_ZN5QListIP7QActionED2Ev.exit

_ZN9QtPrivate8RefCount5derefEv.exit._ZN9QtPrivate8RefCount5derefEv.exit.thread2_crit_edge.i: ; preds = %_ZN9QtPrivate8RefCount5derefEv.exit.i
  %.pre.i = load ptr, ptr %3, align 8
  br label %_ZN9QtPrivate8RefCount5derefEv.exit.thread2.i

_ZN9QtPrivate8RefCount5derefEv.exit.thread2.i:    ; preds = %_ZN9QtPrivate8RefCount5derefEv.exit._ZN9QtPrivate8RefCount5derefEv.exit.thread2_crit_edge.i, %_ZN5QListIP7QActionE6appendERKS2_.exit
  %11 = phi ptr [ %.pre.i, %_ZN9QtPrivate8RefCount5derefEv.exit._ZN9QtPrivate8RefCount5derefEv.exit.thread2_crit_edge.i ], [ %8, %_ZN5QListIP7QActionE6appendERKS2_.exit ]
  invoke void @_ZN9QListData7disposeEPNS_4DataE(ptr noundef %11)
          to label %_ZN5QListIP7QActionED2Ev.exit unwind label %12

12:                                               ; preds = %_ZN9QtPrivate8RefCount5derefEv.exit.thread2.i
  %13 = landingpad { ptr, i32 }
          catch ptr null
  %14 = extractvalue { ptr, i32 } %13, 0
  call void @__clang_call_terminate(ptr %14) #25
  unreachable

_ZN5QListIP7QActionED2Ev.exit:                    ; preds = %_ZN5QListIP7QActionE6appendERKS2_.exit, %_ZN9QtPrivate8RefCount5derefEv.exit.i, %_ZN9QtPrivate8RefCount5derefEv.exit.thread2.i
  %15 = getelementptr inbounds i8, ptr %0, i64 88
  %16 = load ptr, ptr %15, align 8
  call void @_ZNK7QWidget7actionsEv(ptr dead_on_unwind nonnull writable sret(%class.QList.4) align 8 %4, ptr noundef nonnull align 8 dereferenceable(48) %16)
  %17 = invoke noundef nonnull align 8 dereferenceable(8) ptr @_ZN5QListIP7QActionEpLERKS2_(ptr noundef nonnull align 8 dereferenceable(8) %1, ptr noundef nonnull align 8 dereferenceable(8) %4)
          to label %_ZN5QListIP7QActionE6appendERKS2_.exit6 unwind label %27

_ZN5QListIP7QActionE6appendERKS2_.exit6:          ; preds = %_ZN5QListIP7QActionED2Ev.exit
  %18 = load ptr, ptr %4, align 8
  %19 = load atomic i32, ptr %18 monotonic, align 4
  switch i32 %19, label %_ZN9QtPrivate8RefCount5derefEv.exit.i8 [
    i32 0, label %_ZN9QtPrivate8RefCount5derefEv.exit.thread2.i7
    i32 -1, label %_ZN5QListIP7QActionED2Ev.exit12
  ]

_ZN9QtPrivate8RefCount5derefEv.exit.i8:           ; preds = %_ZN5QListIP7QActionE6appendERKS2_.exit6
  %20 = atomicrmw sub ptr %18, i32 1 seq_cst, align 4
  %.not.i9 = icmp eq i32 %20, 1
  br i1 %.not.i9, label %_ZN9QtPrivate8RefCount5derefEv.exit._ZN9QtPrivate8RefCount5derefEv.exit.thread2_crit_edge.i10, label %_ZN5QListIP7QActionED2Ev.exit12

_ZN9QtPrivate8RefCount5derefEv.exit._ZN9QtPrivate8RefCount5derefEv.exit.thread2_crit_edge.i10: ; preds = %_ZN9QtPrivate8RefCount5derefEv.exit.i8
  %.pre.i11 = load ptr, ptr %4, align 8
  br label %_ZN9QtPrivate8RefCount5derefEv.exit.thread2.i7

_ZN9QtPrivate8RefCount5derefEv.exit.thread2.i7:   ; preds = %_ZN9QtPrivate8RefCount5derefEv.exit._ZN9QtPrivate8RefCount5derefEv.exit.thread2_crit_edge.i10, %_ZN5QListIP7QActionE6appendERKS2_.exit6
  %21 = phi ptr [ %.pre.i11, %_ZN9QtPrivate8RefCount5derefEv.exit._ZN9QtPrivate8RefCount5derefEv.exit.thread2_crit_edge.i10 ], [ %18, %_ZN5QListIP7QActionE6appendERKS2_.exit6 ]
  invoke void @_ZN9QListData7disposeEPNS_4DataE(ptr noundef %21)
          to label %_ZN5QListIP7QActionED2Ev.exit12 unwind label %22

22:                                               ; preds = %_ZN9QtPrivate8RefCount5derefEv.exit.thread2.i7
  %23 = landingpad { ptr, i32 }
          catch ptr null
  %24 = extractvalue { ptr, i32 } %23, 0
  call void @__clang_call_terminate(ptr %24) #25
  unreachable

_ZN5QListIP7QActionED2Ev.exit12:                  ; preds = %_ZN5QListIP7QActionE6appendERKS2_.exit6, %_ZN9QtPrivate8RefCount5derefEv.exit.i8, %_ZN9QtPrivate8RefCount5derefEv.exit.thread2.i7
  ret void

25:                                               ; preds = %2
  %26 = landingpad { ptr, i32 }
          cleanup
  br label %29

27:                                               ; preds = %_ZN5QListIP7QActionED2Ev.exit
  %28 = landingpad { ptr, i32 }
          cleanup
  br label %29

29:                                               ; preds = %27, %25
  %.sink = phi ptr [ %4, %27 ], [ %3, %25 ]
  %.pn = phi { ptr, i32 } [ %28, %27 ], [ %26, %25 ]
  call void @_ZN5QListIP7QActionED2Ev(ptr noundef nonnull align 8 dereferenceable(8) %.sink) #23
  resume { ptr, i32 } %.pn
}